; Function Attrs: mustprogress uwtable
define dso_local noundef ptr @_ZN4Luau15RefinementArena11propositionEPKNS_13RefinementKeyEPKNS_4TypeE(ptr noundef nonnull align 8 dereferenceable(40) %0, ptr noundef %1, ptr noundef %2) local_unnamed_addr #0 align 2 {
  %.not = icmp eq ptr %1, null
  br i1 %.not, label %18, label %4

4:                                                ; preds = %3
  %5 = getelementptr inbounds nuw i8, ptr %0, i64 32
  %6 = load i64, ptr %5, align 8
  %7 = icmp ugt i64 %6, 1023
  br i1 %7, label %8, label %_ZN4Luau14TypedAllocatorINS_7VariantIJNS_8VariadicENS_8NegationENS_11ConjunctionENS_11DisjunctionENS_11EquivalenceENS_11PropositionEEEEE8allocateIJS7_EEEPS8_DpOT_.exit

8:                                                ; preds = %4
  tail call void @_ZN4Luau14TypedAllocatorINS_7VariantIJNS_8VariadicENS_8NegationENS_11ConjunctionENS_11DisjunctionENS_11EquivalenceENS_11PropositionEEEEE11appendBlockEv(ptr noundef nonnull align 8 dereferenceable(40) %0)
  %.pre.i = load i64, ptr %5, align 8
  br label %_ZN4Luau14TypedAllocatorINS_7VariantIJNS_8VariadicENS_8NegationENS_11ConjunctionENS_11DisjunctionENS_11EquivalenceENS_11PropositionEEEEE8allocateIJS7_EEEPS8_DpOT_.exit

_ZN4Luau14TypedAllocatorINS_7VariantIJNS_8VariadicENS_8NegationENS_11ConjunctionENS_11DisjunctionENS_11EquivalenceENS_11PropositionEEEEE8allocateIJS7_EEEPS8_DpOT_.exit: ; preds = %4, %8
  %9 = phi i64 [ %.pre.i, %8 ], [ %6, %4 ]
  %10 = getelementptr inbounds nuw i8, ptr %0, i64 16
  %11 = load ptr, ptr %10, align 8
  %12 = getelementptr inbounds i8, ptr %11, i64 -8
  %13 = load ptr, ptr %12, align 8
  %14 = getelementptr inbounds %"class.Luau::Variant", ptr %13, i64 %9
  store i32 5, ptr %14, align 8
  %15 = getelementptr inbounds nuw i8, ptr %14, i64 8
  store ptr %1, ptr %15, align 8
  %.sroa.2.0..sroa_idx = getelementptr inbounds nuw i8, ptr %14, i64 16
  store ptr %2, ptr %.sroa.2.0..sroa_idx, align 8
  %16 = load i64, ptr %5, align 8
  %17 = add i64 %16, 1
  store i64 %17, ptr %5, align 8
  br label %18

18:                                               ; preds = %3, %_ZN4Luau14TypedAllocatorINS_7VariantIJNS_8VariadicENS_8NegationENS_11ConjunctionENS_11DisjunctionENS_11EquivalenceENS_11PropositionEEEEE8allocateIJS7_EEEPS8_DpOT_.exit
  %.0 = phi ptr [ %14, %_ZN4Luau14TypedAllocatorINS_7VariantIJNS_8VariadicENS_8NegationENS_11ConjunctionENS_11DisjunctionENS_11EquivalenceENS_11PropositionEEEEE8allocateIJS7_EEEPS8_DpOT_.exit ], [ null, %3 ]
  ret ptr %.0
}